; Function Attrs: mustprogress uwtable
define void @_ZNK6casadi10HorzRepmat10ad_forwardERKSt6vectorIS1_INS_2MXESaIS2_EESaIS4_EERS6_(ptr noundef nonnull readonly align 8 captures(none) dereferenceable(72) %0, ptr noundef nonnull readonly align 8 captures(none) dereferenceable(24) %1, ptr noundef nonnull readonly align 8 captures(none) dereferenceable(24) %2) unnamed_addr #3 align 2 personality ptr @__gxx_personality_v0 {
  %4 = alloca %"class.casadi::MX", align 8
  %5 = getelementptr inbounds nuw i8, ptr %2, i64 8
  %6 = load ptr, ptr %5, align 8, !tbaa !66
  %7 = load ptr, ptr %2, align 8, !tbaa !69
  %.not = icmp eq ptr %6, %7
  br i1 %.not, label %._crit_edge, label %.lr.ph

.lr.ph:                                           ; preds = %3
  %8 = getelementptr inbounds nuw i8, ptr %0, i64 64
  br label %9

._crit_edge:                                      ; preds = %_ZN6casadi2MXaSERKS0_.exit, %3
  ret void

9:                                                ; preds = %.lr.ph, %_ZN6casadi2MXaSERKS0_.exit
  %.09 = phi i64 [ 0, %.lr.ph ], [ %22, %_ZN6casadi2MXaSERKS0_.exit ]
  call void @llvm.lifetime.start.p0(i64 8, ptr nonnull %4) #21
  %10 = load ptr, ptr %1, align 8, !tbaa !69
  %11 = getelementptr inbounds nuw %"class.std::vector", ptr %10, i64 %.09
  %12 = load ptr, ptr %11, align 8, !tbaa !51
  %13 = call noundef ptr @_ZNK6casadi2MXptEv(ptr noundef nonnull align 8 dereferenceable(8) %12)
  %14 = load i64, ptr %8, align 8, !tbaa !6
  %15 = load ptr, ptr %13, align 8, !tbaa !3
  %16 = getelementptr inbounds nuw i8, ptr %15, i64 504
  %17 = load ptr, ptr %16, align 8
  call void %17(ptr dead_on_unwind nonnull writable sret(%"class.casadi::MX") align 8 %4, ptr noundef nonnull align 8 dereferenceable(64) %13, i64 noundef 1, i64 noundef %14)
  %18 = load ptr, ptr %2, align 8, !tbaa !69
  %19 = getelementptr inbounds nuw %"class.std::vector", ptr %18, i64 %.09
  %20 = load ptr, ptr %19, align 8, !tbaa !51
  %21 = invoke noundef nonnull align 8 dereferenceable(8) ptr @_ZN6casadi13GenericSharedINS_12SharedObjectENS_20SharedObjectInternalEEaSERKS3_(ptr noundef nonnull align 8 dereferenceable(8) %20, ptr noundef nonnull align 8 dereferenceable(8) %4)
          to label %_ZN6casadi2MXaSERKS0_.exit unwind label %30

_ZN6casadi2MXaSERKS0_.exit:                       ; preds = %9
  call void @_ZN6casadi2MXD1Ev(ptr noundef nonnull align 8 dereferenceable(8) %4) #21
  call void @llvm.lifetime.end.p0(i64 8, ptr nonnull %4) #21
  %22 = add nuw nsw i64 %.09, 1
  %23 = load ptr, ptr %5, align 8, !tbaa !66
  %24 = load ptr, ptr %2, align 8, !tbaa !69
  %25 = ptrtoint ptr %23 to i64
  %26 = ptrtoint ptr %24 to i64
  %27 = sub i64 %25, %26
  %28 = sdiv exact i64 %27, 24
  %29 = icmp ult i64 %22, %28
  br i1 %29, label %9, label %._crit_edge, !llvm.loop !70

30:                                               ; preds = %9
  %31 = landingpad { ptr, i32 }
          cleanup
  call void @_ZN6casadi2MXD1Ev(ptr noundef nonnull align 8 dereferenceable(8) %4) #21
  call void @llvm.lifetime.end.p0(i64 8, ptr nonnull %4) #21
  resume { ptr, i32 } %31
}